target datalayout = "e-m:e-p270:32:32-p271:32:32-p272:64:64-i64:64-i128:128-f80:128-n8:16:32:64-S128"
target triple = "x86_64-pc-linux-gnu"

%union.anon = type { i16 }

@stdout = external global ptr, align 8
@stderr = external global ptr, align 8
@.str.1 = private unnamed_addr constant [58 x i8] c"  error: U_IS_BIG_ENDIAN=%d != %d=actual 'is big endian'\0A\00", align 1
@.str.2 = private unnamed_addr constant [58 x i8] c"  error: U_CHARSET_FAMILY=%d != %d=actual charset family\0A\00", align 1
@.str.3 = private unnamed_addr constant [35 x i8] c"\0A\0AICU Initialization returned: %s\0A\00", align 1
@_ZL10initStatus = internal global i32 0, align 4
@.str.4 = private unnamed_addr constant [23 x i8] c"Plugins are disabled.\0A\00", align 1
@_ZL10icuInitted = internal global i8 0, align 1

; Function Attrs: mustprogress uwtable
define internal void @_ZL7do_initv() #0 {
  %1 = load i8, ptr @_ZL10icuInitted, align 1, !tbaa !4
  %2 = icmp ne i8 %1, 0
  br i1 %2, label %4, label %3

3:                                                ; preds = %0
  call void @u_init_77(ptr noundef @_ZL10initStatus)
  store i8 1, ptr @_ZL10icuInitted, align 1, !tbaa !4
  br label %4

4:                                                ; preds = %3, %0
  ret void
}

; Function Attrs: mustprogress uwtable
define dso_local void @_Z11cmd_versionaR10UErrorCode(i8 noundef signext %0, ptr noundef nonnull align 4 dereferenceable(4) %1) #0 {
  %3 = alloca i8, align 1
  %4 = alloca ptr, align 8
  %5 = alloca %union.anon, align 2
  %6 = alloca i32, align 4
  store i8 %0, ptr %3, align 1, !tbaa !4
  store ptr %1, ptr %4, align 8, !tbaa !7
  call void @_ZL7do_initv()
  %7 = load ptr, ptr @stdout, align 8, !tbaa !9
  call void @udbg_writeIcuInfo(ptr noundef %7)
  call void @llvm.lifetime.start.p0(i64 2, ptr %5) #7
  store i16 256, ptr %5, align 2, !tbaa !4
  %8 = load i8, ptr %5, align 2, !tbaa !4
  %9 = zext i8 %8 to i32
  %10 = icmp eq i32 0, %9
  br i1 %10, label %11, label %12

11:                                               ; preds = %2
  br label %18

12:                                               ; preds = %2
  %13 = load ptr, ptr @stderr, align 8, !tbaa !9
  %14 = load i8, ptr %5, align 2, !tbaa !4
  %15 = zext i8 %14 to i32
  %16 = call i32 (ptr, ptr, ...) @fprintf(ptr noundef %13, ptr noundef @.str.1, i32 noundef 0, i32 noundef %15) #7
  %17 = load ptr, ptr %4, align 8, !tbaa !7
  store i32 5, ptr %17, align 4, !tbaa !11
  br label %18

18:                                               ; preds = %12, %11
  call void @llvm.lifetime.start.p0(i64 4, ptr %6) #7
  store i32 0, ptr %6, align 4, !tbaa !13
  %19 = load i32, ptr %6, align 4, !tbaa !13
  %20 = icmp eq i32 0, %19
  br i1 %20, label %21, label %22

21:                                               ; preds = %18
  br label %27

22:                                               ; preds = %18
  %23 = load ptr, ptr @stderr, align 8, !tbaa !9
  %24 = load i32, ptr %6, align 4, !tbaa !13
  %25 = call i32 (ptr, ptr, ...) @fprintf(ptr noundef %23, ptr noundef @.str.2, i32 noundef 0, i32 noundef %24) #7
  %26 = load ptr, ptr %4, align 8, !tbaa !7
  store i32 5, ptr %26, align 4, !tbaa !11
  br label %27

27:                                               ; preds = %22, %21
  %28 = load i32, ptr @_ZL10initStatus, align 4, !tbaa !11
  %29 = call ptr @u_errorName_77(i32 noundef %28)
  %30 = call i32 (ptr, ...) @printf(ptr noundef @.str.3, ptr noundef %29)
  %31 = load ptr, ptr @stderr, align 8, !tbaa !9
  %32 = call i32 (ptr, ptr, ...) @fprintf(ptr noundef %31, ptr noundef @.str.4) #7
  call void @llvm.lifetime.end.p0(i64 4, ptr %6) #7
  call void @llvm.lifetime.end.p0(i64 2, ptr %5) #7
  ret void
}