; Function Attrs: mustprogress uwtable
define dso_local void @_Z11cmd_versionaR10UErrorCode(i8 noundef signext %0, ptr noundef nonnull readnone align 4 captures(none) dereferenceable(4) %1) local_unnamed_addr #0 {
  %.b.i = load i1, ptr @_ZL10icuInitted, align 1
  br i1 %.b.i, label %_ZL7do_initv.exit, label %3

3:                                                ; preds = %2
  tail call void @u_init_77(ptr noundef nonnull @_ZL10initStatus)
  store i1 true, ptr @_ZL10icuInitted, align 1
  br label %_ZL7do_initv.exit

_ZL7do_initv.exit:                                ; preds = %2, %3
  %4 = load ptr, ptr @stdout, align 8, !tbaa !4
  tail call void @udbg_writeIcuInfo(ptr noundef %4)
  %5 = load i32, ptr @_ZL10initStatus, align 4, !tbaa !9
  %6 = tail call ptr @u_errorName_77(i32 noundef %5)
  %7 = tail call i32 (ptr, ...) @printf(ptr noundef nonnull dereferenceable(1) @.str.3, ptr noundef %6)
  %8 = load ptr, ptr @stderr, align 8, !tbaa !4
  %9 = tail call i64 @fwrite(ptr nonnull @.str.4, i64 22, i64 1, ptr %8) #6
  ret void
}